; Function Attrs: nounwind uwtable
define internal ptr @method_vectorcall_NOARGS(ptr noundef %0, ptr noundef readonly captures(none) %1, i64 noundef %2, ptr noundef %3) #0 {
  %5 = tail call align 8 ptr @llvm.threadlocal.address.p0(ptr align 8 @_Py_tss_tstate)
  %6 = load ptr, ptr %5, align 8, !tbaa !63
  %7 = and i64 %2, 9223372036854775807
  %8 = tail call fastcc i32 @method_check_args(ptr noundef %0, ptr noundef %1, i64 noundef %7, ptr noundef %3)
  %.not = icmp eq i32 %8, 0
  br i1 %.not, label %9, label %Py_DECREF.exit

9:                                                ; preds = %4
  %.not21 = icmp eq i64 %7, 1
  br i1 %.not21, label %21, label %10

10:                                               ; preds = %9
  %11 = tail call ptr @_PyObject_FunctionStr(ptr noundef %0) #9
  %.not22 = icmp eq ptr %11, null
  br i1 %.not22, label %Py_DECREF.exit, label %12

12:                                               ; preds = %10
  %13 = load ptr, ptr @PyExc_TypeError, align 8, !tbaa !30
  %14 = add nsw i64 %7, -1
  %15 = tail call ptr (ptr, ptr, ...) @PyErr_Format(ptr noundef %13, ptr noundef nonnull @.str.43, ptr noundef nonnull %11, i64 noundef %14) #9
  %16 = load i32, ptr %11, align 8, !tbaa !16
  %.not.i = icmp sgt i32 %16, -1
  br i1 %.not.i, label %17, label %Py_DECREF.exit

17:                                               ; preds = %12
  %18 = add nsw i32 %16, -1
  store i32 %18, ptr %11, align 8, !tbaa !16
  %19 = icmp eq i32 %18, 0
  br i1 %19, label %20, label %Py_DECREF.exit

20:                                               ; preds = %17
  tail call void @_Py_Dealloc(ptr noundef nonnull %11) #9
  br label %Py_DECREF.exit

21:                                               ; preds = %9
  %22 = getelementptr inbounds nuw i8, ptr %6, i64 52
  %23 = load i32, ptr %22, align 4, !tbaa !144
  %24 = add i32 %23, -1
  store i32 %24, ptr %22, align 4, !tbaa !144
  %.not.i.i = icmp sgt i32 %23, -1
  br i1 %.not.i.i, label %method_enter_call.exit, label %_Py_EnterRecursiveCallTstate.exit.i

_Py_EnterRecursiveCallTstate.exit.i:              ; preds = %21
  %25 = tail call i32 @_Py_CheckRecursiveCall(ptr noundef nonnull %6, ptr noundef nonnull @.str.42) #9
  %.not4.i = icmp eq i32 %25, 0
  br i1 %.not4.i, label %method_enter_call.exit, label %Py_DECREF.exit

method_enter_call.exit:                           ; preds = %21, %_Py_EnterRecursiveCallTstate.exit.i
  %26 = getelementptr inbounds nuw i8, ptr %0, i64 40
  %27 = load ptr, ptr %26, align 8, !tbaa !31
  %28 = getelementptr inbounds nuw i8, ptr %27, i64 8
  %29 = load ptr, ptr %28, align 8, !tbaa !145
  %30 = icmp eq ptr %29, null
  br i1 %30, label %Py_DECREF.exit, label %31

31:                                               ; preds = %method_enter_call.exit
  %32 = load ptr, ptr %1, align 8, !tbaa !30
  %33 = tail call ptr %29(ptr noundef %32, ptr noundef null) #9
  %34 = load i32, ptr %22, align 4, !tbaa !144
  %35 = add i32 %34, 1
  store i32 %35, ptr %22, align 4, !tbaa !144
  br label %Py_DECREF.exit

Py_DECREF.exit:                                   ; preds = %_Py_EnterRecursiveCallTstate.exit.i, %20, %17, %12, %31, %method_enter_call.exit, %10, %4
  %.0 = phi ptr [ null, %4 ], [ null, %10 ], [ %33, %31 ], [ null, %method_enter_call.exit ], [ null, %12 ], [ null, %17 ], [ null, %20 ], [ null, %_Py_EnterRecursiveCallTstate.exit.i ]
  ret ptr %.0
}